; Function Attrs: mustprogress nofree norecurse nosync nounwind willreturn memory(read, inaccessiblemem: none) uwtable
define range(i32 0, 65536) i32 @Map_NodeReadLevel(ptr noundef %0) local_unnamed_addr #3 {
  %2 = ptrtoint ptr %0 to i64
  %3 = and i64 %2, -2
  %4 = inttoptr i64 %3 to ptr
  %5 = getelementptr inbounds nuw i8, ptr %4, i64 28
  %6 = load i32, ptr %5, align 4
  %7 = lshr i32 %6, 5
  %8 = and i32 %7, 65535
  ret i32 %8
}